; ModuleID = '58/1153.c'
source_filename = "58/1153.c"
target datalayout = "e-m:e-p270:32:32-p271:32:32-p272:64:64-i64:64-f80:128-n8:16:32:64-S128"
target triple = "x86_64-pc-linux-gnu"

@.str = private unnamed_addr constant [4 x i8] c"%d\0A\00", align 1

; Function Attrs: noinline nounwind uwtable
define dso_local i32 @main(i32 %0, i8** %1) #0 {
  %3 = alloca i32, align 4
  %4 = alloca i32, align 4
  %5 = alloca i8**, align 8
  %6 = alloca i32, align 4
  %7 = alloca i32, align 4
  %8 = alloca i32, align 4
  %9 = alloca i32, align 4
  %10 = alloca i32, align 4
  %11 = alloca i32, align 4
  %12 = alloca [80 x i8], align 16
  %13 = alloca [80 x i8], align 16
  store i32 0, i32* %3, align 4
  store i32 %0, i32* %4, align 4
  store i8** %1, i8*** %5, align 8
  store i32 0, i32* %11, align 4
  %14 = bitcast [80 x i8]* %12 to i8*
  call void @llvm.memset.p0i8.i64(i8* align 16 %14, i8 0, i64 80, i1 false)
  %15 = call i32 (i8*, ...) @__isoc99_scanf(i8* getelementptr inbounds ([4 x i8], [4 x i8]* @.str, i64 0, i64 0), i32* %9)
  store i32 0, i32* %7, align 4
  br label %16

16:                                               ; preds = %142, %2
  %17 = load i32, i32* %7, align 4
  %18 = load i32, i32* %9, align 4
  %19 = icmp slt i32 %17, %18
  br i1 %19, label %20, label %145

20:                                               ; preds = %16
  %21 = bitcast [80 x i8]* %13 to i8*
  call void @llvm.memset.p0i8.i64(i8* align 16 %21, i8 0, i64 80, i1 false)
  %22 = getelementptr inbounds [80 x i8], [80 x i8]* %13, i64 0, i64 0
  %23 = call i32 (i8*, ...) bitcast (i32 (...)* @gets to i32 (i8*, ...)*)(i8* %22)
  store i32 0, i32* %11, align 4
  %24 = getelementptr inbounds [80 x i8], [80 x i8]* %13, i64 0, i64 0
  %25 = load i8, i8* %24, align 16
  %26 = sext i8 %25 to i32
  %27 = icmp eq i32 %26, 95
  br i1 %27, label %48, label %28

28:                                               ; preds = %20
  %29 = getelementptr inbounds [80 x i8], [80 x i8]* %13, i64 0, i64 0
  %30 = load i8, i8* %29, align 16
  %31 = sext i8 %30 to i32
  %32 = icmp sge i32 %31, 97
  br i1 %32, label %33, label %38

33:                                               ; preds = %28
  %34 = getelementptr inbounds [80 x i8], [80 x i8]* %13, i64 0, i64 0
  %35 = load i8, i8* %34, align 16
  %36 = sext i8 %35 to i32
  %37 = icmp sle i32 %36, 122
  br i1 %37, label %48, label %38

38:                                               ; preds = %33, %28
  %39 = getelementptr inbounds [80 x i8], [80 x i8]* %13, i64 0, i64 0
  %40 = load i8, i8* %39, align 16
  %41 = sext i8 %40 to i32
  %42 = icmp sge i32 %41, 65
  br i1 %42, label %43, label %49

43:                                               ; preds = %38
  %44 = getelementptr inbounds [80 x i8], [80 x i8]* %13, i64 0, i64 0
  %45 = load i8, i8* %44, align 16
  %46 = sext i8 %45 to i32
  %47 = icmp sle i32 %46, 90
  br i1 %47, label %48, label %49

48:                                               ; preds = %43, %33, %20
  store i32 1, i32* %11, align 4
  br label %50

49:                                               ; preds = %43, %38
  store i32 0, i32* %11, align 4
  br label %50

50:                                               ; preds = %49, %48
  store i32 1, i32* %8, align 4
  br label %51

51:                                               ; preds = %136, %50
  %52 = load i32, i32* %8, align 4
  %53 = icmp slt i32 %52, 80
  br i1 %53, label %54, label %139

54:                                               ; preds = %51
  %55 = load i32, i32* %8, align 4
  %56 = sext i32 %55 to i64
  %57 = getelementptr inbounds [80 x i8], [80 x i8]* %13, i64 0, i64 %56
  %58 = load i8, i8* %57, align 1
  %59 = sext i8 %58 to i32
  %60 = icmp eq i32 %59, 95
  br i1 %60, label %103, label %61

61:                                               ; preds = %54
  %62 = load i32, i32* %8, align 4
  %63 = sext i32 %62 to i64
  %64 = getelementptr inbounds [80 x i8], [80 x i8]* %13, i64 0, i64 %63
  %65 = load i8, i8* %64, align 1
  %66 = sext i8 %65 to i32
  %67 = icmp sge i32 %66, 97
  br i1 %67, label %68, label %75

68:                                               ; preds = %61
  %69 = load i32, i32* %8, align 4
  %70 = sext i32 %69 to i64
  %71 = getelementptr inbounds [80 x i8], [80 x i8]* %13, i64 0, i64 %70
  %72 = load i8, i8* %71, align 1
  %73 = sext i8 %72 to i32
  %74 = icmp sle i32 %73, 122
  br i1 %74, label %103, label %75

75:                                               ; preds = %68, %61
  %76 = load i32, i32* %8, align 4
  %77 = sext i32 %76 to i64
  %78 = getelementptr inbounds [80 x i8], [80 x i8]* %13, i64 0, i64 %77
  %79 = load i8, i8* %78, align 1
  %80 = sext i8 %79 to i32
  %81 = icmp sge i32 %80, 65
  br i1 %81, label %82, label %89

82:                                               ; preds = %75
  %83 = load i32, i32* %8, align 4
  %84 = sext i32 %83 to i64
  %85 = getelementptr inbounds [80 x i8], [80 x i8]* %13, i64 0, i64 %84
  %86 = load i8, i8* %85, align 1
  %87 = sext i8 %86 to i32
  %88 = icmp sle i32 %87, 90
  br i1 %88, label %103, label %89

89:                                               ; preds = %82, %75
  %90 = load i32, i32* %8, align 4
  %91 = sext i32 %90 to i64
  %92 = getelementptr inbounds [80 x i8], [80 x i8]* %13, i64 0, i64 %91
  %93 = load i8, i8* %92, align 1
  %94 = sext i8 %93 to i32
  %95 = icmp sge i32 %94, 48
  br i1 %95, label %96, label %105

96:                                               ; preds = %89
  %97 = load i32, i32* %8, align 4
  %98 = sext i32 %97 to i64
  %99 = getelementptr inbounds [80 x i8], [80 x i8]* %13, i64 0, i64 %98
  %100 = load i8, i8* %99, align 1
  %101 = sext i8 %100 to i32
  %102 = icmp sle i32 %101, 57
  br i1 %102, label %103, label %105

103:                                              ; preds = %96, %82, %68, %54
  %104 = load i32, i32* %11, align 4
  store i32 %104, i32* %11, align 4
  br label %135

105:                                              ; preds = %96, %89
  %106 = load i32, i32* %8, align 4
  %107 = sext i32 %106 to i64
  %108 = getelementptr inbounds [80 x i8], [80 x i8]* %13, i64 0, i64 %107
  %109 = load i8, i8* %108, align 1
  %110 = sext i8 %109 to i32
  %111 = icmp ne i32 %110, 0
  br i1 %111, label %112, label %113

112:                                              ; preds = %105
  store i32 0, i32* %11, align 4
  br label %134

113:                                              ; preds = %105
  %114 = load i32, i32* %8, align 4
  store i32 %114, i32* %10, align 4
  br label %115

115:                                              ; preds = %127, %113
  %116 = load i32, i32* %10, align 4
  %117 = icmp slt i32 %116, 80
  br i1 %117, label %118, label %130

118:                                              ; preds = %115
  %119 = load i32, i32* %8, align 4
  %120 = sext i32 %119 to i64
  %121 = getelementptr inbounds [80 x i8], [80 x i8]* %13, i64 0, i64 %120
  %122 = load i8, i8* %121, align 1
  %123 = sext i8 %122 to i32
  %124 = icmp ne i32 %123, 0
  br i1 %124, label %125, label %126

125:                                              ; preds = %118
  store i32 0, i32* %11, align 4
  br label %130

126:                                              ; preds = %118
  br label %127

127:                                              ; preds = %126
  %128 = load i32, i32* %10, align 4
  %129 = add nsw i32 %128, 1
  store i32 %129, i32* %10, align 4
  br label %115

130:                                              ; preds = %125, %115
  store i32 80, i32* %10, align 4
  br i1 true, label %131, label %133

131:                                              ; preds = %130
  %132 = load i32, i32* %11, align 4
  store i32 %132, i32* %11, align 4
  br label %133

133:                                              ; preds = %131, %130
  br label %134

134:                                              ; preds = %133, %112
  br label %135

135:                                              ; preds = %134, %103
  br label %136

136:                                              ; preds = %135
  %137 = load i32, i32* %8, align 4
  %138 = add nsw i32 %137, 1
  store i32 %138, i32* %8, align 4
  br label %51

139:                                              ; preds = %51
  %140 = load i32, i32* %11, align 4
  %141 = call i32 (i8*, ...) @printf(i8* getelementptr inbounds ([4 x i8], [4 x i8]* @.str, i64 0, i64 0), i32 %140)
  br label %142

142:                                              ; preds = %139
  %143 = load i32, i32* %7, align 4
  %144 = add nsw i32 %143, 1
  store i32 %144, i32* %7, align 4
  br label %16

145:                                              ; preds = %16
  ret i32 0
}

; Function Attrs: argmemonly nounwind willreturn
declare void @llvm.memset.p0i8.i64(i8* nocapture writeonly, i8, i64, i1 immarg) #1

declare dso_local i32 @__isoc99_scanf(i8*, ...) #2

declare dso_local i32 @gets(...) #2

declare dso_local i32 @printf(i8*, ...) #2


!llvm.module.flags = !{!0}
!llvm.ident = !{!1}

!0 = !{i32 1, !"wchar_size", i32 4}
!1 = !{!"clang version 10.0.0-4ubuntu1 "}
